; Function Attrs: noreturn nounwind uwtable
define void @yara_yyfatal(ptr nocapture noundef readonly %0, ptr noundef %1) local_unnamed_addr #10 {
  %3 = load ptr, ptr %0, align 8
  %4 = getelementptr inbounds i8, ptr %3, i64 16
  %5 = load i32, ptr %4, align 8
  tail call void @yara_yyerror(ptr noundef nonnull %0, ptr noundef %3, ptr noundef %1)
  store i32 %5, ptr %4, align 8
  %6 = getelementptr inbounds i8, ptr %3, i64 24
  tail call void @longjmp(ptr noundef nonnull %6, i32 noundef 1) #31
  unreachable
}